target datalayout = "e-m:e-p270:32:32-p271:32:32-p272:64:64-i64:64-i128:128-f80:128-n8:16:32:64-S128"
target triple = "x86_64-pc-linux-gnu"

%struct.AVRational = type { i32, i32 }

@__const.av_reduce.a0 = private unnamed_addr constant %struct.AVRational { i32 0, i32 1 }, align 4
@__const.av_reduce.a1 = private unnamed_addr constant %struct.AVRational { i32 1, i32 0 }, align 4

; Function Attrs: nounwind uwtable
define i32 @av_reduce(ptr noundef %0, ptr noundef %1, i64 noundef %2, i64 noundef %3, i64 noundef %4) #0 {
  %6 = alloca ptr, align 8
  %7 = alloca ptr, align 8
  %8 = alloca i64, align 8
  %9 = alloca i64, align 8
  %10 = alloca i64, align 8
  %11 = alloca %struct.AVRational, align 4
  %12 = alloca %struct.AVRational, align 4
  %13 = alloca i32, align 4
  %14 = alloca i64, align 8
  %15 = alloca %struct.AVRational, align 4
  %16 = alloca i64, align 8
  %17 = alloca i64, align 8
  %18 = alloca i64, align 8
  %19 = alloca i64, align 8
  %20 = alloca %struct.AVRational, align 4
  %21 = alloca i32, align 4
  %22 = alloca %struct.AVRational, align 4
  store ptr %0, ptr %6, align 8, !tbaa !4
  store ptr %1, ptr %7, align 8, !tbaa !4
  store i64 %2, ptr %8, align 8, !tbaa !9
  store i64 %3, ptr %9, align 8, !tbaa !9
  store i64 %4, ptr %10, align 8, !tbaa !9
  call void @llvm.lifetime.start.p0(i64 8, ptr %11) #9
  call void @llvm.memcpy.p0.p0.i64(ptr align 4 %11, ptr align 4 @__const.av_reduce.a0, i64 8, i1 false)
  call void @llvm.lifetime.start.p0(i64 8, ptr %12) #9
  call void @llvm.memcpy.p0.p0.i64(ptr align 4 %12, ptr align 4 @__const.av_reduce.a1, i64 8, i1 false)
  call void @llvm.lifetime.start.p0(i64 4, ptr %13) #9
  %23 = load i64, ptr %8, align 8, !tbaa !9
  %24 = icmp slt i64 %23, 0
  %25 = zext i1 %24 to i32
  %26 = load i64, ptr %9, align 8, !tbaa !9
  %27 = icmp slt i64 %26, 0
  %28 = zext i1 %27 to i32
  %29 = xor i32 %25, %28
  store i32 %29, ptr %13, align 4, !tbaa !11
  call void @llvm.lifetime.start.p0(i64 8, ptr %14) #9
  %30 = load i64, ptr %8, align 8, !tbaa !9
  %31 = icmp sge i64 %30, 0
  br i1 %31, label %32, label %34

32:                                               ; preds = %5
  %33 = load i64, ptr %8, align 8, !tbaa !9
  br label %37

34:                                               ; preds = %5
  %35 = load i64, ptr %8, align 8, !tbaa !9
  %36 = sub nsw i64 0, %35
  br label %37

37:                                               ; preds = %34, %32
  %38 = phi i64 [ %33, %32 ], [ %36, %34 ]
  %39 = load i64, ptr %9, align 8, !tbaa !9
  %40 = icmp sge i64 %39, 0
  br i1 %40, label %41, label %43

41:                                               ; preds = %37
  %42 = load i64, ptr %9, align 8, !tbaa !9
  br label %46

43:                                               ; preds = %37
  %44 = load i64, ptr %9, align 8, !tbaa !9
  %45 = sub nsw i64 0, %44
  br label %46

46:                                               ; preds = %43, %41
  %47 = phi i64 [ %42, %41 ], [ %45, %43 ]
  %48 = call i64 @av_gcd(i64 noundef %38, i64 noundef %47) #10
  store i64 %48, ptr %14, align 8, !tbaa !9
  %49 = load i64, ptr %14, align 8, !tbaa !9
  %50 = icmp ne i64 %49, 0
  br i1 %50, label %51, label %74

51:                                               ; preds = %46
  %52 = load i64, ptr %8, align 8, !tbaa !9
  %53 = icmp sge i64 %52, 0
  br i1 %53, label %54, label %56

54:                                               ; preds = %51
  %55 = load i64, ptr %8, align 8, !tbaa !9
  br label %59

56:                                               ; preds = %51
  %57 = load i64, ptr %8, align 8, !tbaa !9
  %58 = sub nsw i64 0, %57
  br label %59

59:                                               ; preds = %56, %54
  %60 = phi i64 [ %55, %54 ], [ %58, %56 ]
  %61 = load i64, ptr %14, align 8, !tbaa !9
  %62 = sdiv i64 %60, %61
  store i64 %62, ptr %8, align 8, !tbaa !9
  %63 = load i64, ptr %9, align 8, !tbaa !9
  %64 = icmp sge i64 %63, 0
  br i1 %64, label %65, label %67

65:                                               ; preds = %59
  %66 = load i64, ptr %9, align 8, !tbaa !9
  br label %70

67:                                               ; preds = %59
  %68 = load i64, ptr %9, align 8, !tbaa !9
  %69 = sub nsw i64 0, %68
  br label %70

70:                                               ; preds = %67, %65
  %71 = phi i64 [ %66, %65 ], [ %69, %67 ]
  %72 = load i64, ptr %14, align 8, !tbaa !9
  %73 = sdiv i64 %71, %72
  store i64 %73, ptr %9, align 8, !tbaa !9
  br label %74

74:                                               ; preds = %70, %46
  %75 = load i64, ptr %8, align 8, !tbaa !9
  %76 = load i64, ptr %10, align 8, !tbaa !9
  %77 = icmp sle i64 %75, %76
  br i1 %77, label %78, label %89

78:                                               ; preds = %74
  %79 = load i64, ptr %9, align 8, !tbaa !9
  %80 = load i64, ptr %10, align 8, !tbaa !9
  %81 = icmp sle i64 %79, %80
  br i1 %81, label %82, label %89

82:                                               ; preds = %78
  %83 = getelementptr inbounds nuw %struct.AVRational, ptr %15, i32 0, i32 0
  %84 = load i64, ptr %8, align 8, !tbaa !9
  %85 = trunc i64 %84 to i32
  store i32 %85, ptr %83, align 4, !tbaa !13
  %86 = getelementptr inbounds nuw %struct.AVRational, ptr %15, i32 0, i32 1
  %87 = load i64, ptr %9, align 8, !tbaa !9
  %88 = trunc i64 %87 to i32
  store i32 %88, ptr %86, align 4, !tbaa !15
  call void @llvm.memcpy.p0.p0.i64(ptr align 4 %12, ptr align 4 %15, i64 8, i1 false), !tbaa.struct !16
  store i64 0, ptr %9, align 8, !tbaa !9
  br label %89

89:                                               ; preds = %82, %78, %74
  br label %90

90:                                               ; preds = %225, %89
  %91 = load i64, ptr %9, align 8, !tbaa !9
  %92 = icmp ne i64 %91, 0
  br i1 %92, label %93, label %226

93:                                               ; preds = %90
  call void @llvm.lifetime.start.p0(i64 8, ptr %16) #9
  %94 = load i64, ptr %8, align 8, !tbaa !9
  %95 = load i64, ptr %9, align 8, !tbaa !9
  %96 = sdiv i64 %94, %95
  store i64 %96, ptr %16, align 8, !tbaa !9
  call void @llvm.lifetime.start.p0(i64 8, ptr %17) #9
  %97 = load i64, ptr %8, align 8, !tbaa !9
  %98 = load i64, ptr %9, align 8, !tbaa !9
  %99 = load i64, ptr %16, align 8, !tbaa !9
  %100 = mul i64 %98, %99
  %101 = sub i64 %97, %100
  store i64 %101, ptr %17, align 8, !tbaa !9
  call void @llvm.lifetime.start.p0(i64 8, ptr %18) #9
  %102 = load i64, ptr %16, align 8, !tbaa !9
  %103 = getelementptr inbounds nuw %struct.AVRational, ptr %12, i32 0, i32 0
  %104 = load i32, ptr %103, align 4, !tbaa !13
  %105 = sext i32 %104 to i64
  %106 = mul i64 %102, %105
  %107 = getelementptr inbounds nuw %struct.AVRational, ptr %11, i32 0, i32 0
  %108 = load i32, ptr %107, align 4, !tbaa !13
  %109 = sext i32 %108 to i64
  %110 = add i64 %106, %109
  store i64 %110, ptr %18, align 8, !tbaa !9
  call void @llvm.lifetime.start.p0(i64 8, ptr %19) #9
  %111 = load i64, ptr %16, align 8, !tbaa !9
  %112 = getelementptr inbounds nuw %struct.AVRational, ptr %12, i32 0, i32 1
  %113 = load i32, ptr %112, align 4, !tbaa !15
  %114 = sext i32 %113 to i64
  %115 = mul i64 %111, %114
  %116 = getelementptr inbounds nuw %struct.AVRational, ptr %11, i32 0, i32 1
  %117 = load i32, ptr %116, align 4, !tbaa !15
  %118 = sext i32 %117 to i64
  %119 = add i64 %115, %118
  store i64 %119, ptr %19, align 8, !tbaa !9
  %120 = load i64, ptr %18, align 8, !tbaa !9
  %121 = load i64, ptr %10, align 8, !tbaa !9
  %122 = icmp sgt i64 %120, %121
  br i1 %122, label %127, label %123

123:                                              ; preds = %93
  %124 = load i64, ptr %19, align 8, !tbaa !9
  %125 = load i64, ptr %10, align 8, !tbaa !9
  %126 = icmp sgt i64 %124, %125
  br i1 %126, label %127, label %214

127:                                              ; preds = %123, %93
  %128 = getelementptr inbounds nuw %struct.AVRational, ptr %12, i32 0, i32 0
  %129 = load i32, ptr %128, align 4, !tbaa !13
  %130 = icmp ne i32 %129, 0
  br i1 %130, label %131, label %141

131:                                              ; preds = %127
  %132 = load i64, ptr %10, align 8, !tbaa !9
  %133 = getelementptr inbounds nuw %struct.AVRational, ptr %11, i32 0, i32 0
  %134 = load i32, ptr %133, align 4, !tbaa !13
  %135 = sext i32 %134 to i64
  %136 = sub nsw i64 %132, %135
  %137 = getelementptr inbounds nuw %struct.AVRational, ptr %12, i32 0, i32 0
  %138 = load i32, ptr %137, align 4, !tbaa !13
  %139 = sext i32 %138 to i64
  %140 = sdiv i64 %136, %139
  store i64 %140, ptr %16, align 8, !tbaa !9
  br label %141

141:                                              ; preds = %131, %127
  %142 = getelementptr inbounds nuw %struct.AVRational, ptr %12, i32 0, i32 1
  %143 = load i32, ptr %142, align 4, !tbaa !15
  %144 = icmp ne i32 %143, 0
  br i1 %144, label %145, label %171

145:                                              ; preds = %141
  %146 = load i64, ptr %16, align 8, !tbaa !9
  %147 = load i64, ptr %10, align 8, !tbaa !9
  %148 = getelementptr inbounds nuw %struct.AVRational, ptr %11, i32 0, i32 1
  %149 = load i32, ptr %148, align 4, !tbaa !15
  %150 = sext i32 %149 to i64
  %151 = sub nsw i64 %147, %150
  %152 = getelementptr inbounds nuw %struct.AVRational, ptr %12, i32 0, i32 1
  %153 = load i32, ptr %152, align 4, !tbaa !15
  %154 = sext i32 %153 to i64
  %155 = sdiv i64 %151, %154
  %156 = icmp ugt i64 %146, %155
  br i1 %156, label %157, label %167

157:                                              ; preds = %145
  %158 = load i64, ptr %10, align 8, !tbaa !9
  %159 = getelementptr inbounds nuw %struct.AVRational, ptr %11, i32 0, i32 1
  %160 = load i32, ptr %159, align 4, !tbaa !15
  %161 = sext i32 %160 to i64
  %162 = sub nsw i64 %158, %161
  %163 = getelementptr inbounds nuw %struct.AVRational, ptr %12, i32 0, i32 1
  %164 = load i32, ptr %163, align 4, !tbaa !15
  %165 = sext i32 %164 to i64
  %166 = sdiv i64 %162, %165
  br label %169

167:                                              ; preds = %145
  %168 = load i64, ptr %16, align 8, !tbaa !9
  br label %169

169:                                              ; preds = %167, %157
  %170 = phi i64 [ %166, %157 ], [ %168, %167 ]
  store i64 %170, ptr %16, align 8, !tbaa !9
  br label %171

171:                                              ; preds = %169, %141
  %172 = load i64, ptr %9, align 8, !tbaa !9
  %173 = load i64, ptr %16, align 8, !tbaa !9
  %174 = mul i64 2, %173
  %175 = getelementptr inbounds nuw %struct.AVRational, ptr %12, i32 0, i32 1
  %176 = load i32, ptr %175, align 4, !tbaa !15
  %177 = sext i32 %176 to i64
  %178 = mul i64 %174, %177
  %179 = getelementptr inbounds nuw %struct.AVRational, ptr %11, i32 0, i32 1
  %180 = load i32, ptr %179, align 4, !tbaa !15
  %181 = sext i32 %180 to i64
  %182 = add i64 %178, %181
  %183 = mul i64 %172, %182
  %184 = load i64, ptr %8, align 8, !tbaa !9
  %185 = getelementptr inbounds nuw %struct.AVRational, ptr %12, i32 0, i32 1
  %186 = load i32, ptr %185, align 4, !tbaa !15
  %187 = sext i32 %186 to i64
  %188 = mul nsw i64 %184, %187
  %189 = icmp ugt i64 %183, %188
  br i1 %189, label %190, label %213

190:                                              ; preds = %171
  %191 = getelementptr inbounds nuw %struct.AVRational, ptr %20, i32 0, i32 0
  %192 = load i64, ptr %16, align 8, !tbaa !9
  %193 = getelementptr inbounds nuw %struct.AVRational, ptr %12, i32 0, i32 0
  %194 = load i32, ptr %193, align 4, !tbaa !13
  %195 = sext i32 %194 to i64
  %196 = mul i64 %192, %195
  %197 = getelementptr inbounds nuw %struct.AVRational, ptr %11, i32 0, i32 0
  %198 = load i32, ptr %197, align 4, !tbaa !13
  %199 = sext i32 %198 to i64
  %200 = add i64 %196, %199
  %201 = trunc i64 %200 to i32
  store i32 %201, ptr %191, align 4, !tbaa !13
  %202 = getelementptr inbounds nuw %struct.AVRational, ptr %20, i32 0, i32 1
  %203 = load i64, ptr %16, align 8, !tbaa !9
  %204 = getelementptr inbounds nuw %struct.AVRational, ptr %12, i32 0, i32 1
  %205 = load i32, ptr %204, align 4, !tbaa !15
  %206 = sext i32 %205 to i64
  %207 = mul i64 %203, %206
  %208 = getelementptr inbounds nuw %struct.AVRational, ptr %11, i32 0, i32 1
  %209 = load i32, ptr %208, align 4, !tbaa !15
  %210 = sext i32 %209 to i64
  %211 = add i64 %207, %210
  %212 = trunc i64 %211 to i32
  store i32 %212, ptr %202, align 4, !tbaa !15
  call void @llvm.memcpy.p0.p0.i64(ptr align 4 %12, ptr align 4 %20, i64 8, i1 false), !tbaa.struct !16
  br label %213

213:                                              ; preds = %190, %171
  store i32 3, ptr %21, align 4
  br label %223

214:                                              ; preds = %123
  call void @llvm.memcpy.p0.p0.i64(ptr align 4 %11, ptr align 4 %12, i64 8, i1 false), !tbaa.struct !16
  %215 = getelementptr inbounds nuw %struct.AVRational, ptr %22, i32 0, i32 0
  %216 = load i64, ptr %18, align 8, !tbaa !9
  %217 = trunc i64 %216 to i32
  store i32 %217, ptr %215, align 4, !tbaa !13
  %218 = getelementptr inbounds nuw %struct.AVRational, ptr %22, i32 0, i32 1
  %219 = load i64, ptr %19, align 8, !tbaa !9
  %220 = trunc i64 %219 to i32
  store i32 %220, ptr %218, align 4, !tbaa !15
  call void @llvm.memcpy.p0.p0.i64(ptr align 4 %12, ptr align 4 %22, i64 8, i1 false), !tbaa.struct !16
  %221 = load i64, ptr %9, align 8, !tbaa !9
  store i64 %221, ptr %8, align 8, !tbaa !9
  %222 = load i64, ptr %17, align 8, !tbaa !9
  store i64 %222, ptr %9, align 8, !tbaa !9
  store i32 0, ptr %21, align 4
  br label %223

223:                                              ; preds = %214, %213
  call void @llvm.lifetime.end.p0(i64 8, ptr %19) #9
  call void @llvm.lifetime.end.p0(i64 8, ptr %18) #9
  call void @llvm.lifetime.end.p0(i64 8, ptr %17) #9
  call void @llvm.lifetime.end.p0(i64 8, ptr %16) #9
  %224 = load i32, ptr %21, align 4
  switch i32 %224, label %245 [
    i32 0, label %225
    i32 3, label %226
  ]

225:                                              ; preds = %223
  br label %90, !llvm.loop !17

226:                                              ; preds = %223, %90
  %227 = load i32, ptr %13, align 4, !tbaa !11
  %228 = icmp ne i32 %227, 0
  br i1 %228, label %229, label %233

229:                                              ; preds = %226
  %230 = getelementptr inbounds nuw %struct.AVRational, ptr %12, i32 0, i32 0
  %231 = load i32, ptr %230, align 4, !tbaa !13
  %232 = sub nsw i32 0, %231
  br label %236

233:                                              ; preds = %226
  %234 = getelementptr inbounds nuw %struct.AVRational, ptr %12, i32 0, i32 0
  %235 = load i32, ptr %234, align 4, !tbaa !13
  br label %236

236:                                              ; preds = %233, %229
  %237 = phi i32 [ %232, %229 ], [ %235, %233 ]
  %238 = load ptr, ptr %6, align 8, !tbaa !4
  store i32 %237, ptr %238, align 4, !tbaa !11
  %239 = getelementptr inbounds nuw %struct.AVRational, ptr %12, i32 0, i32 1
  %240 = load i32, ptr %239, align 4, !tbaa !15
  %241 = load ptr, ptr %7, align 8, !tbaa !4
  store i32 %240, ptr %241, align 4, !tbaa !11
  %242 = load i64, ptr %9, align 8, !tbaa !9
  %243 = icmp eq i64 %242, 0
  %244 = zext i1 %243 to i32
  store i32 1, ptr %21, align 4
  call void @llvm.lifetime.end.p0(i64 8, ptr %14) #9
  call void @llvm.lifetime.end.p0(i64 4, ptr %13) #9
  call void @llvm.lifetime.end.p0(i64 8, ptr %12) #9
  call void @llvm.lifetime.end.p0(i64 8, ptr %11) #9
  ret i32 %244

245:                                              ; preds = %223
  unreachable
}