; Function Attrs: nofree nosync nounwind memory(argmem: write) uwtable
define range(i32 0, 2) i32 @av_reduce(ptr noundef writeonly captures(none) %0, ptr noundef writeonly captures(none) %1, i64 noundef %2, i64 noundef %3, i64 noundef %4) local_unnamed_addr #0 {
  %6 = tail call i64 @llvm.abs.i64(i64 %2, i1 true)
  %7 = tail call i64 @llvm.abs.i64(i64 %3, i1 true)
  %8 = tail call i64 @av_gcd(i64 noundef %6, i64 noundef %7) #8
  %.not = icmp eq i64 %8, 0
  br i1 %.not, label %.preheader, label %9

9:                                                ; preds = %5
  %10 = sdiv i64 %6, %8
  %11 = sdiv i64 %7, %8
  br label %.preheader

.preheader:                                       ; preds = %9, %5
  %.079 = phi i64 [ %11, %9 ], [ %3, %5 ]
  %.0 = phi i64 [ %10, %9 ], [ %2, %5 ]
  %.not93 = icmp sle i64 %.0, %4
  %.not94 = icmp sle i64 %.079, %4
  %or.cond.not = and i1 %.not94, %.not93
  %12 = trunc i64 %.0 to i32
  %13 = trunc i64 %.079 to i32
  %.sroa.022.1.ph = select i1 %or.cond.not, i32 %12, i32 1
  %.sroa.13.1.ph = select i1 %or.cond.not, i32 %13, i32 0
  %.not95120146 = icmp eq i64 %.079, 0
  %.not95120 = or i1 %or.cond.not, %.not95120146
  br i1 %.not95120, label %.loopexit, label %.lr.ph

.lr.ph:                                           ; preds = %.preheader, %44
  %.1126 = phi i64 [ %.281125, %44 ], [ %.0, %.preheader ]
  %.281125 = phi i64 [ %.recomposed, %44 ], [ %.079, %.preheader ]
  %.sroa.7.0124 = phi i32 [ %.sroa.13.1122, %44 ], [ 1, %.preheader ]
  %.sroa.037.0123 = phi i32 [ %.sroa.022.1121, %44 ], [ 0, %.preheader ]
  %.sroa.13.1122 = phi i32 [ %47, %44 ], [ %.sroa.13.1.ph, %.preheader ]
  %.sroa.022.1121 = phi i32 [ %46, %44 ], [ %.sroa.022.1.ph, %.preheader ]
  %14 = sdiv i64 %.1126, %.281125
  %.recomposed = srem i64 %.1126, %.281125
  %15 = sext i32 %.sroa.022.1121 to i64
  %16 = mul i64 %14, %15
  %17 = sext i32 %.sroa.037.0123 to i64
  %18 = add i64 %16, %17
  %19 = sext i32 %.sroa.13.1122 to i64
  %20 = mul i64 %14, %19
  %21 = sext i32 %.sroa.7.0124 to i64
  %22 = add i64 %20, %21
  %23 = icmp sgt i64 %18, %4
  %24 = icmp sgt i64 %22, %4
  %or.cond100 = select i1 %23, i1 true, i1 %24
  br i1 %or.cond100, label %25, label %44

25:                                               ; preds = %.lr.ph
  %.not96 = icmp eq i32 %.sroa.022.1121, 0
  br i1 %.not96, label %29, label %26

26:                                               ; preds = %25
  %27 = sub nsw i64 %4, %17
  %28 = sdiv i64 %27, %15
  br label %29

29:                                               ; preds = %26, %25
  %.083 = phi i64 [ %28, %26 ], [ %14, %25 ]
  %.not97 = icmp eq i32 %.sroa.13.1122, 0
  br i1 %.not97, label %.thread, label %30

30:                                               ; preds = %29
  %31 = sub nsw i64 %4, %21
  %32 = sdiv i64 %31, %19
  %..083 = tail call i64 @llvm.umin.i64(i64 %.083, i64 %32)
  br label %.thread

.thread:                                          ; preds = %29, %30
  %.184 = phi i64 [ %..083, %30 ], [ %.083, %29 ]
  %33 = shl nsw i64 %19, 1
  %34 = mul i64 %33, %.184
  %35 = add i64 %34, %21
  %36 = mul i64 %35, %.281125
  %37 = mul nsw i64 %.1126, %19
  %38 = icmp ugt i64 %36, %37
  %39 = trunc i64 %.184 to i32
  %40 = mul i32 %.sroa.022.1121, %39
  %41 = add i32 %40, %.sroa.037.0123
  %42 = mul i32 %.sroa.13.1122, %39
  %43 = add i32 %42, %.sroa.7.0124
  %.sroa.022.3 = select i1 %38, i32 %41, i32 %.sroa.022.1121
  %.sroa.13.3 = select i1 %38, i32 %43, i32 %.sroa.13.1122
  br label %.loopexit

44:                                               ; preds = %.lr.ph
  %45 = mul i64 %14, %.281125
  %46 = trunc i64 %18 to i32
  %47 = trunc i64 %22 to i32
  %.not95 = icmp eq i64 %.recomposed, 0
  br i1 %.not95, label %.loopexit, label %.lr.ph

.loopexit:                                        ; preds = %44, %.preheader, %.thread
  %.281111 = phi i32 [ 0, %.thread ], [ 1, %.preheader ], [ 1, %44 ]
  %.sroa.022.2 = phi i32 [ %.sroa.022.3, %.thread ], [ %.sroa.022.1.ph, %.preheader ], [ %46, %44 ]
  %.sroa.13.2 = phi i32 [ %.sroa.13.3, %.thread ], [ %.sroa.13.1.ph, %.preheader ], [ %47, %44 ]
  %.lobit92 = xor i64 %3, %2
  %48 = sub nsw i32 0, %.sroa.022.2
  %.not9899 = icmp slt i64 %.lobit92, 0
  %49 = select i1 %.not9899, i32 %48, i32 %.sroa.022.2
  store i32 %49, ptr %0, align 4, !tbaa !4
  store i32 %.sroa.13.2, ptr %1, align 4, !tbaa !4
  ret i32 %.281111
}